; Function Attrs: nounwind uwtable
define dso_local i32 @select_g_get_info_from_plugin(i32 noundef %0, ptr noundef %1, ptr noundef %2) local_unnamed_addr #0 {
  %4 = load ptr, ptr @ops, align 8
  %5 = load i32, ptr @select_context_default, align 4
  %6 = sext i32 %5 to i64
  %7 = getelementptr inbounds %struct.slurm_select_ops_t, ptr %4, i64 %6, i32 30
  %8 = load ptr, ptr %7, align 8
  %9 = tail call i32 %8(i32 noundef %0, ptr noundef %1, ptr noundef %2) #15
  ret i32 %9
}